; Function Attrs: mustprogress uwtable
define noundef nonnull ptr @_ZN6duckdb8EnumUtil7ToCharsIN14duckdb_parquet16CompressionCodec4typeEEEPKcT_(i32 noundef %0) local_unnamed_addr #3 align 2 personality ptr @__gxx_personality_v0 {
  %2 = alloca %"class.std::__cxx11::basic_string", align 8
  %3 = alloca %"class.std::__cxx11::basic_string", align 8
  %4 = alloca %"class.std::allocator.76", align 1
  %5 = icmp ult i32 %0, 8
  br i1 %5, label %switch.lookup, label %6

6:                                                ; preds = %1
  %7 = tail call ptr @__cxa_allocate_exception(i64 16) #27
  call void @llvm.lifetime.start.p0(i64 32, ptr nonnull %2) #27
  call void @llvm.lifetime.start.p0(i64 1, ptr nonnull %4) #27
  invoke void @_ZNSt7__cxx1112basic_stringIcSt11char_traitsIcESaIcEEC2EPKcRKS3_(ptr noundef nonnull align 8 dereferenceable(32) %3, ptr noundef nonnull @.str.53, ptr noundef nonnull align 1 dereferenceable(1) %4)
          to label %8 unwind label %_ZNSt7__cxx1112basic_stringIcSt11char_traitsIcESaIcEED2Ev.exit14.thread

8:                                                ; preds = %6
  invoke void @_ZN6duckdb10StringUtil6FormatIJN14duckdb_parquet16CompressionCodec4typeEEEENSt7__cxx1112basic_stringIcSt11char_traitsIcESaIcEEESA_DpT_(ptr dead_on_unwind nonnull writable sret(%"class.std::__cxx11::basic_string") align 8 %2, ptr noundef nonnull %3, i32 noundef %0)
          to label %9 unwind label %_ZNSt7__cxx1112basic_stringIcSt11char_traitsIcESaIcEED2Ev.exit.thread

9:                                                ; preds = %8
  invoke void @_ZN6duckdb23NotImplementedExceptionC1ERKNSt7__cxx1112basic_stringIcSt11char_traitsIcESaIcEEE(ptr noundef nonnull align 8 dereferenceable(16) %7, ptr noundef nonnull align 8 dereferenceable(32) %2)
          to label %10 unwind label %12

10:                                               ; preds = %9
  invoke void @__cxa_throw(ptr nonnull %7, ptr nonnull @_ZTIN6duckdb23NotImplementedExceptionE, ptr nonnull @_ZNSt13runtime_errorD2Ev) #29
          to label %36 unwind label %12

_ZNSt7__cxx1112basic_stringIcSt11char_traitsIcESaIcEED2Ev.exit14.thread: ; preds = %6
  %11 = landingpad { ptr, i32 }
          cleanup
  br label %.sink.split

12:                                               ; preds = %10, %9
  %.0 = phi i1 [ false, %10 ], [ true, %9 ]
  %13 = landingpad { ptr, i32 }
          cleanup
  %14 = load ptr, ptr %2, align 8, !tbaa !26
  %15 = getelementptr inbounds nuw i8, ptr %2, i64 16
  %16 = icmp eq ptr %14, %15
  br i1 %16, label %_ZNKSt7__cxx1112basic_stringIcSt11char_traitsIcESaIcEE11_M_is_localEv.exit.thread.i.i, label %_ZNKSt7__cxx1112basic_stringIcSt11char_traitsIcESaIcEE11_M_is_localEv.exit.i.i

_ZNKSt7__cxx1112basic_stringIcSt11char_traitsIcESaIcEE11_M_is_localEv.exit.thread.i.i: ; preds = %12
  %17 = getelementptr inbounds nuw i8, ptr %2, i64 8
  %18 = load i64, ptr %17, align 8, !tbaa !30
  %19 = icmp ult i64 %18, 16
  call void @llvm.assume(i1 %19)
  br label %_ZNSt7__cxx1112basic_stringIcSt11char_traitsIcESaIcEED2Ev.exit

_ZNKSt7__cxx1112basic_stringIcSt11char_traitsIcESaIcEE11_M_is_localEv.exit.i.i: ; preds = %12
  call void @_ZdlPv(ptr noundef %14) #28
  br label %_ZNSt7__cxx1112basic_stringIcSt11char_traitsIcESaIcEED2Ev.exit

_ZNSt7__cxx1112basic_stringIcSt11char_traitsIcESaIcEED2Ev.exit: ; preds = %_ZNKSt7__cxx1112basic_stringIcSt11char_traitsIcESaIcEE11_M_is_localEv.exit.i.i, %_ZNKSt7__cxx1112basic_stringIcSt11char_traitsIcESaIcEE11_M_is_localEv.exit.thread.i.i
  %20 = load ptr, ptr %3, align 8, !tbaa !26
  %21 = getelementptr inbounds nuw i8, ptr %3, i64 16
  %22 = icmp eq ptr %20, %21
  br i1 %22, label %_ZNKSt7__cxx1112basic_stringIcSt11char_traitsIcESaIcEE11_M_is_localEv.exit.thread.i.i13, label %_ZNSt7__cxx1112basic_stringIcSt11char_traitsIcESaIcEED2Ev.exit14

_ZNSt7__cxx1112basic_stringIcSt11char_traitsIcESaIcEED2Ev.exit.thread: ; preds = %8
  %23 = landingpad { ptr, i32 }
          cleanup
  %24 = load ptr, ptr %3, align 8, !tbaa !26
  %25 = getelementptr inbounds nuw i8, ptr %3, i64 16
  %26 = icmp eq ptr %24, %25
  br i1 %26, label %_ZNKSt7__cxx1112basic_stringIcSt11char_traitsIcESaIcEE11_M_is_localEv.exit.thread.i.i13.thread, label %_ZNSt7__cxx1112basic_stringIcSt11char_traitsIcESaIcEED2Ev.exit14.thread25

_ZNKSt7__cxx1112basic_stringIcSt11char_traitsIcESaIcEE11_M_is_localEv.exit.thread.i.i13.thread: ; preds = %_ZNSt7__cxx1112basic_stringIcSt11char_traitsIcESaIcEED2Ev.exit.thread
  %27 = getelementptr inbounds nuw i8, ptr %3, i64 8
  %28 = load i64, ptr %27, align 8, !tbaa !30
  %29 = icmp ult i64 %28, 16
  call void @llvm.assume(i1 %29)
  br label %.sink.split

_ZNSt7__cxx1112basic_stringIcSt11char_traitsIcESaIcEED2Ev.exit14.thread25: ; preds = %_ZNSt7__cxx1112basic_stringIcSt11char_traitsIcESaIcEED2Ev.exit.thread
  call void @_ZdlPv(ptr noundef %24) #28
  br label %.sink.split

_ZNKSt7__cxx1112basic_stringIcSt11char_traitsIcESaIcEE11_M_is_localEv.exit.thread.i.i13: ; preds = %_ZNSt7__cxx1112basic_stringIcSt11char_traitsIcESaIcEED2Ev.exit
  %30 = getelementptr inbounds nuw i8, ptr %3, i64 8
  %31 = load i64, ptr %30, align 8, !tbaa !30
  %32 = icmp ult i64 %31, 16
  call void @llvm.assume(i1 %32)
  call void @llvm.lifetime.end.p0(i64 1, ptr nonnull %4) #27
  call void @llvm.lifetime.end.p0(i64 32, ptr nonnull %2) #27
  br i1 %.0, label %33, label %35

_ZNSt7__cxx1112basic_stringIcSt11char_traitsIcESaIcEED2Ev.exit14: ; preds = %_ZNSt7__cxx1112basic_stringIcSt11char_traitsIcESaIcEED2Ev.exit
  call void @_ZdlPv(ptr noundef %20) #28
  call void @llvm.lifetime.end.p0(i64 1, ptr nonnull %4) #27
  call void @llvm.lifetime.end.p0(i64 32, ptr nonnull %2) #27
  br i1 %.0, label %33, label %35

.sink.split:                                      ; preds = %_ZNSt7__cxx1112basic_stringIcSt11char_traitsIcESaIcEED2Ev.exit14.thread, %_ZNSt7__cxx1112basic_stringIcSt11char_traitsIcESaIcEED2Ev.exit14.thread25, %_ZNKSt7__cxx1112basic_stringIcSt11char_traitsIcESaIcEE11_M_is_localEv.exit.thread.i.i13.thread
  %.pn.pn18.ph = phi { ptr, i32 } [ %23, %_ZNKSt7__cxx1112basic_stringIcSt11char_traitsIcESaIcEE11_M_is_localEv.exit.thread.i.i13.thread ], [ %23, %_ZNSt7__cxx1112basic_stringIcSt11char_traitsIcESaIcEED2Ev.exit14.thread25 ], [ %11, %_ZNSt7__cxx1112basic_stringIcSt11char_traitsIcESaIcEED2Ev.exit14.thread ]
  call void @llvm.lifetime.end.p0(i64 1, ptr nonnull %4) #27
  call void @llvm.lifetime.end.p0(i64 32, ptr nonnull %2) #27
  br label %33

33:                                               ; preds = %.sink.split, %_ZNKSt7__cxx1112basic_stringIcSt11char_traitsIcESaIcEE11_M_is_localEv.exit.thread.i.i13, %_ZNSt7__cxx1112basic_stringIcSt11char_traitsIcESaIcEED2Ev.exit14
  %.pn.pn18 = phi { ptr, i32 } [ %13, %_ZNSt7__cxx1112basic_stringIcSt11char_traitsIcESaIcEED2Ev.exit14 ], [ %13, %_ZNKSt7__cxx1112basic_stringIcSt11char_traitsIcESaIcEE11_M_is_localEv.exit.thread.i.i13 ], [ %.pn.pn18.ph, %.sink.split ]
  call void @__cxa_free_exception(ptr %7) #27
  br label %35

switch.lookup:                                    ; preds = %1
  %34 = zext nneg i32 %0 to i64
  %switch.gep = getelementptr inbounds nuw [8 x ptr], ptr @switch.table._ZN6duckdb8EnumUtil7ToCharsIN14duckdb_parquet16CompressionCodec4typeEEEPKcT_, i64 0, i64 %34
  %switch.load = load ptr, ptr %switch.gep, align 8
  ret ptr %switch.load

35:                                               ; preds = %_ZNKSt7__cxx1112basic_stringIcSt11char_traitsIcESaIcEE11_M_is_localEv.exit.thread.i.i13, %_ZNSt7__cxx1112basic_stringIcSt11char_traitsIcESaIcEED2Ev.exit14, %33
  %.pn.pn17 = phi { ptr, i32 } [ %13, %_ZNSt7__cxx1112basic_stringIcSt11char_traitsIcESaIcEED2Ev.exit14 ], [ %.pn.pn18, %33 ], [ %13, %_ZNKSt7__cxx1112basic_stringIcSt11char_traitsIcESaIcEE11_M_is_localEv.exit.thread.i.i13 ]
  resume { ptr, i32 } %.pn.pn17

36:                                               ; preds = %10
  unreachable
}